target datalayout = "e-m:e-p270:32:32-p271:32:32-p272:64:64-i64:64-i128:128-f80:128-n8:16:32:64-S128"
target triple = "x86_64-pc-linux-gnu"

%"class.google::protobuf::internal::ExtensionSet" = type { ptr, i16, i16, %"union.google::protobuf::internal::ExtensionSet::AllocatedData" }
%"union.google::protobuf::internal::ExtensionSet::AllocatedData" = type { ptr }
%"class.google::protobuf::internal::LogMessage" = type { i32, ptr, i32, %"class.std::__cxx11::basic_string" }
%"class.std::__cxx11::basic_string" = type { %"struct.std::__cxx11::basic_string<char>::_Alloc_hider", i64, %union.anon.3 }
%"struct.std::__cxx11::basic_string<char>::_Alloc_hider" = type { ptr }
%union.anon.3 = type { i64, [8 x i8] }
%"class.google::protobuf::internal::LogFinisher" = type { i8 }
%"struct.google::protobuf::internal::ExtensionSet::Extension" = type { %union.anon, i8, i8, i8, i8, i32, ptr }
%union.anon = type { i64 }
%"class.google::protobuf::FieldDescriptor" = type { %"class.google::protobuf::internal::SymbolBase", i8, i8, i8, i32, ptr, ptr, ptr, ptr, %union.anon.4, %union.anon.5, ptr, %union.anon.6 }
%"class.google::protobuf::internal::SymbolBase" = type { i8 }
%union.anon.4 = type { ptr }
%union.anon.5 = type { ptr }
%union.anon.6 = type { i64 }

@.str = private unnamed_addr constant [152 x i8] c"generated/home/dtcxzyw/WorkSpace/Projects/compilers/llvm-opt-benchmark/bench/opencv/opencv/3rdparty/protobuf/src/google/protobuf/extension_set_heavy.cc\00", align 1
@.str.1 = private unnamed_addr constant [148 x i8] c"CHECK failed: ((*extension).is_repeated ? FieldDescriptor::LABEL_REPEATED : FieldDescriptor::LABEL_OPTIONAL) == (FieldDescriptor::LABEL_OPTIONAL): \00", align 1
@.str.2 = private unnamed_addr constant [84 x i8] c"CHECK failed: (cpp_type((*extension).type)) == (FieldDescriptor::CPPTYPE_MESSAGE): \00", align 1
@_ZN6google8protobuf15FieldDescriptor17kTypeToCppTypeMapE = external constant [19 x i32], align 16

; Function Attrs: inlinehint mustprogress nounwind uwtable
define linkonce_odr hidden noundef i32 @_ZN6google8protobuf15FieldDescriptor13TypeToCppTypeENS1_4TypeE(i32 noundef %0) #7 comdat align 2 {
  %2 = alloca i32, align 4
  store i32 %0, ptr %2, align 4, !tbaa !205
  %3 = load i32, ptr %2, align 4, !tbaa !205
  %4 = zext i32 %3 to i64
  %5 = getelementptr inbounds nuw [19 x i32], ptr @_ZN6google8protobuf15FieldDescriptor17kTypeToCppTypeMapE, i64 0, i64 %4
  %6 = load i32, ptr %5, align 4, !tbaa !112
  ret i32 %6
}

; Function Attrs: inlinehint mustprogress uwtable
define linkonce_odr hidden noundef i32 @_ZN6google8protobuf8internal8cpp_typeEh(i8 noundef zeroext %0) #6 comdat {
  %2 = alloca i8, align 1
  store i8 %0, ptr %2, align 1, !tbaa !26
  %3 = load i8, ptr %2, align 1, !tbaa !26
  %4 = zext i8 %3 to i32
  %5 = call noundef i32 @_ZN6google8protobuf15FieldDescriptor13TypeToCppTypeENS1_4TypeE(i32 noundef %4)
  ret i32 %5
}

; Function Attrs: inlinehint mustprogress nounwind uwtable
define linkonce_odr hidden noundef i32 @_ZNK6google8protobuf15FieldDescriptor6numberEv(ptr noundef nonnull align 8 dereferenceable(72) %0) #7 comdat align 2 {
  %2 = alloca ptr, align 8
  store ptr %0, ptr %2, align 8, !tbaa !61
  %3 = load ptr, ptr %2, align 8
  %4 = getelementptr inbounds nuw %"class.google::protobuf::FieldDescriptor", ptr %3, i32 0, i32 4
  %5 = load i32, ptr %4, align 4, !tbaa !68
  ret i32 %5
}

; Function Attrs: mustprogress uwtable
define hidden noundef ptr @_ZN6google8protobuf8internal12ExtensionSet25UnsafeArenaReleaseMessageEPKNS0_15FieldDescriptorEPNS0_14MessageFactoryE(ptr noundef nonnull align 8 dereferenceable(24) %0, ptr noundef %1, ptr noundef %2) #4 align 2 personality ptr @__gxx_personality_v0 {
  %4 = alloca ptr, align 8
  %5 = alloca ptr, align 8
  %6 = alloca ptr, align 8
  %7 = alloca ptr, align 8
  %8 = alloca ptr, align 8
  %9 = alloca i32, align 4
  %10 = alloca %"class.google::protobuf::internal::LogMessage", align 8
  %11 = alloca i1, align 1
  %12 = alloca i1, align 1
  %13 = alloca ptr, align 8
  %14 = alloca i32, align 4
  %15 = alloca %"class.google::protobuf::internal::LogFinisher", align 1
  %16 = alloca %"class.google::protobuf::internal::LogMessage", align 8
  %17 = alloca i1, align 1
  %18 = alloca i1, align 1
  %19 = alloca %"class.google::protobuf::internal::LogFinisher", align 1
  %20 = alloca ptr, align 8
  store ptr %0, ptr %5, align 8, !tbaa !29
  store ptr %1, ptr %6, align 8, !tbaa !61
  store ptr %2, ptr %7, align 8, !tbaa !43
  %21 = load ptr, ptr %5, align 8
  call void @llvm.lifetime.start.p0(i64 8, ptr %8) #3
  %22 = load ptr, ptr %6, align 8, !tbaa !61
  %23 = call noundef i32 @_ZNK6google8protobuf15FieldDescriptor6numberEv(ptr noundef nonnull align 8 dereferenceable(72) %22)
  %24 = call noundef ptr @_ZN6google8protobuf8internal12ExtensionSet10FindOrNullEi(ptr noundef nonnull align 8 dereferenceable(24) %21, i32 noundef %23)
  store ptr %24, ptr %8, align 8, !tbaa !44
  %25 = load ptr, ptr %8, align 8, !tbaa !44
  %26 = icmp eq ptr %25, null
  br i1 %26, label %27, label %28

27:                                               ; preds = %3
  store ptr null, ptr %4, align 8
  store i32 1, ptr %9, align 4
  br label %144

28:                                               ; preds = %3
  br label %29

29:                                               ; preds = %48, %28
  br i1 false, label %30, label %64

30:                                               ; preds = %29
  %31 = load ptr, ptr %8, align 8, !tbaa !44
  %32 = getelementptr inbounds nuw %"struct.google::protobuf::internal::ExtensionSet::Extension", ptr %31, i32 0, i32 2
  %33 = load i8, ptr %32, align 1, !tbaa !48, !range !51, !noundef !52
  %34 = trunc i8 %33 to i1
  %35 = select i1 %34, i32 3, i32 1
  %36 = icmp eq i32 %35, 1
  store i1 false, ptr %11, align 1
  store i1 false, ptr %12, align 1
  call void @llvm.lifetime.start.p0(i64 1, ptr %15) #3
  br i1 %36, label %37, label %38

37:                                               ; preds = %30
  br label %42

38:                                               ; preds = %30
  call void @llvm.lifetime.start.p0(i64 56, ptr %10) #3
  store i1 true, ptr %11, align 1
  call void @_ZN6google8protobuf8internal10LogMessageC1ENS0_8LogLevelEPKci(ptr noundef nonnull align 8 dereferenceable(56) %10, i32 noundef 3, ptr noundef @.str, i32 noundef 228)
  store i1 true, ptr %12, align 1
  %39 = invoke noundef nonnull align 8 dereferenceable(56) ptr @_ZN6google8protobuf8internal10LogMessagelsEPKc(ptr noundef nonnull align 8 dereferenceable(56) %10, ptr noundef @.str.1)
          to label %40 unwind label %49

40:                                               ; preds = %38
  invoke void @_ZN6google8protobuf8internal11LogFinisheraSERNS1_10LogMessageE(ptr noundef nonnull align 1 dereferenceable(1) %15, ptr noundef nonnull align 8 dereferenceable(56) %39)
          to label %41 unwind label %53

41:                                               ; preds = %40
  br label %42

42:                                               ; preds = %41, %37
  call void @llvm.lifetime.end.p0(i64 1, ptr %15) #3
  %43 = load i1, ptr %12, align 1
  br i1 %43, label %44, label %45

44:                                               ; preds = %42
  call void @_ZN6google8protobuf8internal10LogMessageD1Ev(ptr noundef nonnull align 8 dereferenceable(56) %10) #3
  br label %45

45:                                               ; preds = %44, %42
  %46 = load i1, ptr %11, align 1
  br i1 %46, label %47, label %48

47:                                               ; preds = %45
  call void @llvm.lifetime.end.p0(i64 56, ptr %10) #3
  br label %48

48:                                               ; preds = %47, %45
  br label %29, !llvm.loop !80

49:                                               ; preds = %38
  %50 = landingpad { ptr, i32 }
          cleanup
  %51 = extractvalue { ptr, i32 } %50, 0
  store ptr %51, ptr %13, align 8
  %52 = extractvalue { ptr, i32 } %50, 1
  store i32 %52, ptr %14, align 4
  br label %57

53:                                               ; preds = %40
  %54 = landingpad { ptr, i32 }
          cleanup
  %55 = extractvalue { ptr, i32 } %54, 0
  store ptr %55, ptr %13, align 8
  %56 = extractvalue { ptr, i32 } %54, 1
  store i32 %56, ptr %14, align 4
  call void @llvm.lifetime.end.p0(i64 1, ptr %15) #3
  br label %57

57:                                               ; preds = %53, %49
  %58 = load i1, ptr %12, align 1
  br i1 %58, label %59, label %60

59:                                               ; preds = %57
  call void @_ZN6google8protobuf8internal10LogMessageD1Ev(ptr noundef nonnull align 8 dereferenceable(56) %10) #3
  br label %60

60:                                               ; preds = %59, %57
  %61 = load i1, ptr %11, align 1
  br i1 %61, label %62, label %63

62:                                               ; preds = %60
  call void @llvm.lifetime.end.p0(i64 56, ptr %10) #3
  br label %63

63:                                               ; preds = %62, %60
  br label %146

64:                                               ; preds = %29
  br label %65

65:                                               ; preds = %83, %64
  br i1 false, label %66, label %99

66:                                               ; preds = %65
  %67 = load ptr, ptr %8, align 8, !tbaa !44
  %68 = getelementptr inbounds nuw %"struct.google::protobuf::internal::ExtensionSet::Extension", ptr %67, i32 0, i32 1
  %69 = load i8, ptr %68, align 8, !tbaa !55
  %70 = call noundef i32 @_ZN6google8protobuf8internal8cpp_typeEh(i8 noundef zeroext %69)
  %71 = icmp eq i32 %70, 10
  store i1 false, ptr %17, align 1
  store i1 false, ptr %18, align 1
  call void @llvm.lifetime.start.p0(i64 1, ptr %19) #3
  br i1 %71, label %72, label %73

72:                                               ; preds = %66
  br label %77

73:                                               ; preds = %66
  call void @llvm.lifetime.start.p0(i64 56, ptr %16) #3
  store i1 true, ptr %17, align 1
  call void @_ZN6google8protobuf8internal10LogMessageC1ENS0_8LogLevelEPKci(ptr noundef nonnull align 8 dereferenceable(56) %16, i32 noundef 3, ptr noundef @.str, i32 noundef 228)
  store i1 true, ptr %18, align 1
  %74 = invoke noundef nonnull align 8 dereferenceable(56) ptr @_ZN6google8protobuf8internal10LogMessagelsEPKc(ptr noundef nonnull align 8 dereferenceable(56) %16, ptr noundef @.str.2)
          to label %75 unwind label %84

75:                                               ; preds = %73
  invoke void @_ZN6google8protobuf8internal11LogFinisheraSERNS1_10LogMessageE(ptr noundef nonnull align 1 dereferenceable(1) %19, ptr noundef nonnull align 8 dereferenceable(56) %74)
          to label %76 unwind label %88

76:                                               ; preds = %75
  br label %77

77:                                               ; preds = %76, %72
  call void @llvm.lifetime.end.p0(i64 1, ptr %19) #3
  %78 = load i1, ptr %18, align 1
  br i1 %78, label %79, label %80

79:                                               ; preds = %77
  call void @_ZN6google8protobuf8internal10LogMessageD1Ev(ptr noundef nonnull align 8 dereferenceable(56) %16) #3
  br label %80

80:                                               ; preds = %79, %77
  %81 = load i1, ptr %17, align 1
  br i1 %81, label %82, label %83

82:                                               ; preds = %80
  call void @llvm.lifetime.end.p0(i64 56, ptr %16) #3
  br label %83

83:                                               ; preds = %82, %80
  br label %65, !llvm.loop !81

84:                                               ; preds = %73
  %85 = landingpad { ptr, i32 }
          cleanup
  %86 = extractvalue { ptr, i32 } %85, 0
  store ptr %86, ptr %13, align 8
  %87 = extractvalue { ptr, i32 } %85, 1
  store i32 %87, ptr %14, align 4
  br label %92

88:                                               ; preds = %75
  %89 = landingpad { ptr, i32 }
          cleanup
  %90 = extractvalue { ptr, i32 } %89, 0
  store ptr %90, ptr %13, align 8
  %91 = extractvalue { ptr, i32 } %89, 1
  store i32 %91, ptr %14, align 4
  call void @llvm.lifetime.end.p0(i64 1, ptr %19) #3
  br label %92

92:                                               ; preds = %88, %84
  %93 = load i1, ptr %18, align 1
  br i1 %93, label %94, label %95

94:                                               ; preds = %92
  call void @_ZN6google8protobuf8internal10LogMessageD1Ev(ptr noundef nonnull align 8 dereferenceable(56) %16) #3
  br label %95

95:                                               ; preds = %94, %92
  %96 = load i1, ptr %17, align 1
  br i1 %96, label %97, label %98

97:                                               ; preds = %95
  call void @llvm.lifetime.end.p0(i64 56, ptr %16) #3
  br label %98

98:                                               ; preds = %97, %95
  br label %146

99:                                               ; preds = %65
  call void @llvm.lifetime.start.p0(i64 8, ptr %20) #3
  store ptr null, ptr %20, align 8, !tbaa !64
  %100 = load ptr, ptr %8, align 8, !tbaa !44
  %101 = getelementptr inbounds nuw %"struct.google::protobuf::internal::ExtensionSet::Extension", ptr %100, i32 0, i32 3
  %102 = load i8, ptr %101, align 2
  %103 = lshr i8 %102, 4
  %104 = trunc i8 %103 to i1
  br i1 %104, label %105, label %136

105:                                              ; preds = %99
  %106 = load ptr, ptr %8, align 8, !tbaa !44
  %107 = getelementptr inbounds nuw %"struct.google::protobuf::internal::ExtensionSet::Extension", ptr %106, i32 0, i32 0
  %108 = load ptr, ptr %107, align 8, !tbaa !26
  %109 = load ptr, ptr %7, align 8, !tbaa !43
  %110 = load ptr, ptr %6, align 8, !tbaa !61
  %111 = call noundef ptr @_ZNK6google8protobuf15FieldDescriptor12message_typeEv(ptr noundef nonnull align 8 dereferenceable(72) %110)
  %112 = load ptr, ptr %109, align 8, !tbaa !46
  %113 = getelementptr inbounds ptr, ptr %112, i64 2
  %114 = load ptr, ptr %113, align 8
  %115 = call noundef ptr %114(ptr noundef nonnull align 8 dereferenceable(8) %109, ptr noundef %111)
  %116 = getelementptr inbounds nuw %"class.google::protobuf::internal::ExtensionSet", ptr %21, i32 0, i32 0
  %117 = load ptr, ptr %116, align 8, !tbaa !57
  %118 = load ptr, ptr %108, align 8, !tbaa !46
  %119 = getelementptr inbounds ptr, ptr %118, i64 8
  %120 = load ptr, ptr %119, align 8
  %121 = call noundef ptr %120(ptr noundef nonnull align 8 dereferenceable(8) %108, ptr noundef nonnull align 8 dereferenceable(16) %115, ptr noundef %117)
  store ptr %121, ptr %20, align 8, !tbaa !64
  %122 = getelementptr inbounds nuw %"class.google::protobuf::internal::ExtensionSet", ptr %21, i32 0, i32 0
  %123 = load ptr, ptr %122, align 8, !tbaa !57
  %124 = icmp eq ptr %123, null
  br i1 %124, label %125, label %135

125:                                              ; preds = %105
  %126 = load ptr, ptr %8, align 8, !tbaa !44
  %127 = getelementptr inbounds nuw %"struct.google::protobuf::internal::ExtensionSet::Extension", ptr %126, i32 0, i32 0
  %128 = load ptr, ptr %127, align 8, !tbaa !26
  %129 = icmp eq ptr %128, null
  br i1 %129, label %134, label %130

130:                                              ; preds = %125
  %131 = load ptr, ptr %128, align 8, !tbaa !46
  %132 = getelementptr inbounds ptr, ptr %131, i64 1
  %133 = load ptr, ptr %132, align 8
  call void %133(ptr noundef nonnull align 8 dereferenceable(8) %128) #3
  br label %134

134:                                              ; preds = %130, %125
  br label %135

135:                                              ; preds = %134, %105
  br label %140

136:                                              ; preds = %99
  %137 = load ptr, ptr %8, align 8, !tbaa !44
  %138 = getelementptr inbounds nuw %"struct.google::protobuf::internal::ExtensionSet::Extension", ptr %137, i32 0, i32 0
  %139 = load ptr, ptr %138, align 8, !tbaa !26
  store ptr %139, ptr %20, align 8, !tbaa !64
  br label %140

140:                                              ; preds = %136, %135
  %141 = load ptr, ptr %6, align 8, !tbaa !61
  %142 = call noundef i32 @_ZNK6google8protobuf15FieldDescriptor6numberEv(ptr noundef nonnull align 8 dereferenceable(72) %141)
  call void @_ZN6google8protobuf8internal12ExtensionSet5EraseEi(ptr noundef nonnull align 8 dereferenceable(24) %21, i32 noundef %142)
  %143 = load ptr, ptr %20, align 8, !tbaa !64
  store ptr %143, ptr %4, align 8
  store i32 1, ptr %9, align 4
  call void @llvm.lifetime.end.p0(i64 8, ptr %20) #3
  br label %144

144:                                              ; preds = %140, %27
  call void @llvm.lifetime.end.p0(i64 8, ptr %8) #3
  %145 = load ptr, ptr %4, align 8
  ret ptr %145

146:                                              ; preds = %98, %63
  call void @llvm.lifetime.end.p0(i64 8, ptr %8) #3
  br label %147

147:                                              ; preds = %146
  %148 = load ptr, ptr %13, align 8
  %149 = load i32, ptr %14, align 4
  %150 = insertvalue { ptr, i32 } poison, ptr %148, 0
  %151 = insertvalue { ptr, i32 } %150, i32 %149, 1
  resume { ptr, i32 } %151
}