; Function Attrs: mustprogress uwtable
define hidden noundef ptr @_ZN6google8protobuf8internal12ExtensionSet25UnsafeArenaReleaseMessageEPKNS0_15FieldDescriptorEPNS0_14MessageFactoryE(ptr noundef nonnull align 8 dereferenceable(24) %0, ptr noundef %1, ptr noundef %2) local_unnamed_addr #3 align 2 personality ptr @__gxx_personality_v0 {
  %4 = getelementptr inbounds nuw i8, ptr %1, i64 4
  %5 = load i32, ptr %4, align 4, !tbaa !55
  %6 = tail call noundef ptr @_ZN6google8protobuf8internal12ExtensionSet10FindOrNullEi(ptr noundef nonnull align 8 dereferenceable(24) %0, i32 noundef %5)
  %7 = icmp eq ptr %6, null
  br i1 %7, label %35, label %8

8:                                                ; preds = %3
  %9 = getelementptr inbounds nuw i8, ptr %6, i64 10
  %10 = load i8, ptr %9, align 2
  %11 = and i8 %10, 16
  %.not = icmp eq i8 %11, 0
  %12 = load ptr, ptr %6, align 8, !tbaa !16
  br i1 %.not, label %33, label %13

13:                                               ; preds = %8
  %14 = tail call noundef ptr @_ZNK6google8protobuf15FieldDescriptor12message_typeEv(ptr noundef nonnull align 8 dereferenceable(72) %1)
  %15 = load ptr, ptr %2, align 8, !tbaa !52
  %16 = getelementptr inbounds nuw i8, ptr %15, i64 16
  %17 = load ptr, ptr %16, align 8
  %18 = tail call noundef ptr %17(ptr noundef nonnull align 8 dereferenceable(8) %2, ptr noundef %14)
  %19 = load ptr, ptr %0, align 8, !tbaa !54
  %20 = load ptr, ptr %12, align 8, !tbaa !52
  %21 = getelementptr inbounds nuw i8, ptr %20, i64 64
  %22 = load ptr, ptr %21, align 8
  %23 = tail call noundef ptr %22(ptr noundef nonnull align 8 dereferenceable(8) %12, ptr noundef nonnull align 8 dereferenceable(16) %18, ptr noundef %19)
  %24 = load ptr, ptr %0, align 8, !tbaa !54
  %25 = icmp eq ptr %24, null
  br i1 %25, label %26, label %33

26:                                               ; preds = %13
  %27 = load ptr, ptr %6, align 8, !tbaa !16
  %28 = icmp eq ptr %27, null
  br i1 %28, label %33, label %29

29:                                               ; preds = %26
  %30 = load ptr, ptr %27, align 8, !tbaa !52
  %31 = getelementptr inbounds nuw i8, ptr %30, i64 8
  %32 = load ptr, ptr %31, align 8
  tail call void %32(ptr noundef nonnull align 8 dereferenceable(8) %27) #21
  br label %33

33:                                               ; preds = %8, %13, %29, %26
  %.0 = phi ptr [ %23, %26 ], [ %23, %29 ], [ %23, %13 ], [ %12, %8 ]
  %34 = load i32, ptr %4, align 4, !tbaa !55
  tail call void @_ZN6google8protobuf8internal12ExtensionSet5EraseEi(ptr noundef nonnull align 8 dereferenceable(24) %0, i32 noundef %34)
  br label %35

35:                                               ; preds = %3, %33
  %.012 = phi ptr [ %.0, %33 ], [ null, %3 ]
  ret ptr %.012
}